	.file	"fibonacci.c"
	.text
	.globl	_fib
	.def	_fib;	.scl	2;	.type	32;	.endef
_fib:
LFB13:
	.cfi_startproc
	pushl	%ebp
	.cfi_def_cfa_offset 8
	.cfi_offset 5, -8
	movl	%esp, %ebp
	.cfi_def_cfa_register 5
	pushl	%ebx
	subl	$20, %esp
	.cfi_offset 3, -12
	cmpl	$1, 8(%ebp)
	jg	L2
	movl	8(%ebp), %eax
	jmp	L3
L2:
	movl	8(%ebp), %eax
	subl	$1, %eax
	movl	%eax, (%esp)
	call	_fib
	movl	%eax, %ebx
	movl	8(%ebp), %eax
	subl	$2, %eax
	movl	%eax, (%esp)
	call	_fib
	addl	%ebx, %eax
L3:
	addl	$20, %esp
	popl	%ebx
	.cfi_restore 3
	popl	%ebp
	.cfi_restore 5
	.cfi_def_cfa 4, 4
	ret
	.cfi_endproc
LFE13:
	.def	___main;	.scl	2;	.type	32;	.endef
	.section .rdata,"dr"
LC0:
	.ascii "%d\0"
	.text
	.globl	_main
	.def	_main;	.scl	2;	.type	32;	.endef
_main:
LFB14:
	.cfi_startproc
	pushl	%ebp
	.cfi_def_cfa_offset 8
	.cfi_offset 5, -8
	movl	%esp, %ebp
	.cfi_def_cfa_register 5
	andl	$-16, %esp
	subl	$32, %esp
	call	___main
	movl	$9, 28(%esp)
	movl	28(%esp), %eax
	movl	%eax, (%esp)
	call	_fib
	movl	%eax, 4(%esp)
	movl	$LC0, (%esp)
	call	_printf
	call	_getchar
	movl	$0, %eax
	leave
	.cfi_restore 5
	.cfi_def_cfa 4, 4
	ret
	.cfi_endproc
LFE14:
	.ident	"GCC: (i686-posix-dwarf-rev0, Built by MinGW-W64 project) 8.1.0"
	.def	_printf;	.scl	2;	.type	32;	.endef
	.def	_getchar;	.scl	2;	.type	32;	.endef
